; Function Attrs: mustprogress uwtable
define hidden void @_ZN19OpenColorIO_v2_4dev14CreateMinMaxOpERNS_10OpRcPtrVecEPKdS3_NS_18TransformDirectionE(ptr noundef nonnull align 8 dereferenceable(144) %ops, ptr nocapture noundef readonly %from_min3, ptr nocapture noundef readonly %from_max3, i32 noundef %direction) local_unnamed_addr #3 {
entry:
  %m44.i = alloca [16 x double], align 16
  %scale4 = alloca [4 x double], align 16
  %offset4 = alloca [4 x double], align 16
  call void @llvm.memcpy.p0.p0.i64(ptr noundef nonnull align 16 dereferenceable(32) %scale4, ptr noundef nonnull align 16 dereferenceable(32) @__const._ZN19OpenColorIO_v2_4dev14CreateMinMaxOpERNS_10OpRcPtrVecEPKdS3_NS_18TransformDirectionE.scale4, i64 32, i1 false)
  call void @llvm.memset.p0.i64(ptr noundef nonnull align 16 dereferenceable(32) %offset4, i8 0, i64 32, i1 false)
  br label %for.body

for.body:                                         ; preds = %entry, %for.body
  %indvars.iv = phi i64 [ 0, %entry ], [ %indvars.iv.next, %for.body ]
  %somethingToDo.013 = phi i1 [ false, %entry ], [ %or12, %for.body ]
  %arrayidx = getelementptr inbounds double, ptr %from_max3, i64 %indvars.iv
  %0 = load double, ptr %arrayidx, align 8
  %arrayidx2 = getelementptr inbounds double, ptr %from_min3, i64 %indvars.iv
  %1 = load double, ptr %arrayidx2, align 8
  %sub = fsub double %0, %1
  %div = fdiv double 1.000000e+00, %sub
  %arrayidx4 = getelementptr inbounds [4 x double], ptr %scale4, i64 0, i64 %indvars.iv
  store double %div, ptr %arrayidx4, align 8
  %fneg = fneg double %1
  %mul = fmul double %div, %fneg
  %arrayidx10 = getelementptr inbounds [4 x double], ptr %offset4, i64 0, i64 %indvars.iv
  store double %mul, ptr %arrayidx10, align 8
  %cmp13 = fcmp une double %div, 1.000000e+00
  %cmp16 = fcmp une double %mul, 0.000000e+00
  %2 = select i1 %cmp13, i1 true, i1 %cmp16
  %or12 = or i1 %somethingToDo.013, %2
  %indvars.iv.next = add nuw nsw i64 %indvars.iv, 1
  %exitcond.not = icmp eq i64 %indvars.iv.next, 3
  br i1 %exitcond.not, label %for.end, label %for.body, !llvm.loop !14

for.end:                                          ; preds = %for.body
  br i1 %or12, label %if.then, label %if.end

if.then:                                          ; preds = %for.end
  call void @llvm.lifetime.start.p0(i64 128, ptr nonnull %m44.i)
  call void @llvm.memset.p0.i64(ptr noundef nonnull align 16 dereferenceable(128) %m44.i, i8 0, i64 128, i1 false)
  %3 = load double, ptr %scale4, align 16
  store double %3, ptr %m44.i, align 16
  %arrayidx2.i = getelementptr inbounds i8, ptr %scale4, i64 8
  %4 = load double, ptr %arrayidx2.i, align 8
  %arrayidx3.i = getelementptr inbounds i8, ptr %m44.i, i64 40
  store double %4, ptr %arrayidx3.i, align 8
  %arrayidx4.i = getelementptr inbounds i8, ptr %scale4, i64 16
  %5 = load double, ptr %arrayidx4.i, align 16
  %arrayidx5.i = getelementptr inbounds i8, ptr %m44.i, i64 80
  store double %5, ptr %arrayidx5.i, align 16
  %arrayidx6.i = getelementptr inbounds i8, ptr %scale4, i64 24
  %6 = load double, ptr %arrayidx6.i, align 8
  %arrayidx7.i = getelementptr inbounds i8, ptr %m44.i, i64 120
  store double %6, ptr %arrayidx7.i, align 8
  call void @_ZN19OpenColorIO_v2_4dev20CreateMatrixOffsetOpERNS_10OpRcPtrVecEPKdS3_NS_18TransformDirectionE(ptr noundef nonnull align 8 dereferenceable(144) %ops, ptr noundef nonnull %m44.i, ptr noundef nonnull %offset4, i32 noundef %direction)
  call void @llvm.lifetime.end.p0(i64 128, ptr nonnull %m44.i)
  br label %if.end

if.end:                                           ; preds = %if.then, %for.end
  ret void
}